target datalayout = "e-m:e-p270:32:32-p271:32:32-p272:64:64-i64:64-i128:128-f80:128-n8:16:32:64-S128"
target triple = "x86_64-unknown-linux-gnu"

%"class.hermes::hbc::RuntimeFunctionHeader" = type { ptr }
%"class.hermes::vm::CodeBlock" = type <{ ptr, %"class.hermes::hbc::RuntimeFunctionHeader", ptr, i32, i32, i32, [4 x i8] }>
%"class.hermes::vm::RuntimeModule" = type { %"class.llvh::ilist_node", ptr, %"class.std::vector", %"class.hermes::vm::WeakRoot", %"class.std::vector.19", %"class.std::shared_ptr", %"union.hermes::vm::RuntimeModuleFlags", %"class.std::__cxx11::basic_string", i32, [4 x i8], %"class.llvh::DenseMap", %"class.llvh::DenseMap.25" }
%"class.llvh::ilist_node" = type { %"class.llvh::ilist_node_impl" }
%"class.llvh::ilist_node_impl" = type { %"class.llvh::ilist_node_base" }
%"class.llvh::ilist_node_base" = type { ptr, ptr }
%"class.std::vector" = type { %"struct.std::_Vector_base" }
%"struct.std::_Vector_base" = type { %"struct.std::_Vector_base<hermes::vm::RootSymbolID, std::allocator<hermes::vm::RootSymbolID>>::_Vector_impl" }
%"struct.std::_Vector_base<hermes::vm::RootSymbolID, std::allocator<hermes::vm::RootSymbolID>>::_Vector_impl" = type { %"struct.std::_Vector_base<hermes::vm::RootSymbolID, std::allocator<hermes::vm::RootSymbolID>>::_Vector_impl_data" }
%"struct.std::_Vector_base<hermes::vm::RootSymbolID, std::allocator<hermes::vm::RootSymbolID>>::_Vector_impl_data" = type { ptr, ptr, ptr }
%"class.hermes::vm::WeakRoot" = type { %"class.hermes::vm::WeakRootBase" }
%"class.hermes::vm::WeakRootBase" = type { %"class.hermes::vm::CompressedPointer" }
%"class.hermes::vm::CompressedPointer" = type { %"class.hermes::vm::BasedPointer" }
%"class.hermes::vm::BasedPointer" = type { i32 }
%"class.std::vector.19" = type { %"struct.std::_Vector_base.20" }
%"struct.std::_Vector_base.20" = type { %"struct.std::_Vector_base<hermes::vm::CodeBlock *, std::allocator<hermes::vm::CodeBlock *>>::_Vector_impl" }
%"struct.std::_Vector_base<hermes::vm::CodeBlock *, std::allocator<hermes::vm::CodeBlock *>>::_Vector_impl" = type { %"struct.std::_Vector_base<hermes::vm::CodeBlock *, std::allocator<hermes::vm::CodeBlock *>>::_Vector_impl_data" }
%"struct.std::_Vector_base<hermes::vm::CodeBlock *, std::allocator<hermes::vm::CodeBlock *>>::_Vector_impl_data" = type { ptr, ptr, ptr }
%"class.std::shared_ptr" = type { %"class.std::__shared_ptr" }
%"class.std::__shared_ptr" = type { ptr, %"class.std::__shared_count" }
%"class.std::__shared_count" = type { ptr }
%"union.hermes::vm::RuntimeModuleFlags" = type { %struct.anon.24 }
%struct.anon.24 = type { i8 }
%"class.std::__cxx11::basic_string" = type { %"struct.std::__cxx11::basic_string<char>::_Alloc_hider", i64, %union.anon }
%"struct.std::__cxx11::basic_string<char>::_Alloc_hider" = type { ptr }
%union.anon = type { i64, [8 x i8] }
%"class.llvh::DenseMap" = type <{ ptr, i32, i32, i32, [4 x i8] }>
%"class.llvh::DenseMap.25" = type <{ ptr, i32, i32, i32, [4 x i8] }>
%"class.hermes::vm::SerializedLiteralParser" = type { %"class.hermes::hbc::SerializedLiteralParserBase", ptr }
%"class.hermes::hbc::SerializedLiteralParserBase" = type { %"class.llvh::ArrayRef.1", i32, i8, i32, i32 }
%"class.llvh::ArrayRef.1" = type { ptr, i64 }
%"class.hermes::hbc::BCProviderBase" = type { ptr, %"union.hermes::hbc::BytecodeOptions", i32, i32, i32, %"class.llvh::ArrayRef", %"class.llvh::ArrayRef.0", %"class.llvh::ArrayRef.1", %"class.llvh::ArrayRef.1", %"class.llvh::ArrayRef.1", %"class.llvh::ArrayRef.1", %"class.llvh::ArrayRef.2", %"class.llvh::ArrayRef.1", %"class.llvh::ArrayRef.3", %"class.llvh::ArrayRef.1", i32, %"class.llvh::ArrayRef.4", %"class.llvh::ArrayRef.4", %"class.llvh::ArrayRef.4", ptr, %"class.std::__cxx11::basic_string" }
%"union.hermes::hbc::BytecodeOptions" = type { %struct.anon }
%struct.anon = type { i8 }
%"class.llvh::ArrayRef" = type { ptr, i64 }
%"class.llvh::ArrayRef.0" = type { ptr, i64 }
%"class.llvh::ArrayRef.2" = type { ptr, i64 }
%"class.llvh::ArrayRef.3" = type { ptr, i64 }
%"class.llvh::ArrayRef.4" = type { ptr, i64 }

; Function Attrs: mustprogress nounwind uwtable
define linkonce_odr hidden void @_ZN4llvh8ArrayRefIhEC2EPKhm(ptr noundef nonnull align 8 dereferenceable(16) %this, ptr noundef %data, i64 noundef %length) unnamed_addr #0 comdat align 2 {
entry:
  %this.addr = alloca ptr, align 8
  %data.addr = alloca ptr, align 8
  %length.addr = alloca i64, align 8
  store ptr %this, ptr %this.addr, align 8
  store ptr %data, ptr %data.addr, align 8
  store i64 %length, ptr %length.addr, align 8
  %this1 = load ptr, ptr %this.addr, align 8
  %Data = getelementptr inbounds %"class.llvh::ArrayRef.1", ptr %this1, i32 0, i32 0
  %0 = load ptr, ptr %data.addr, align 8
  store ptr %0, ptr %Data, align 8
  %Length = getelementptr inbounds %"class.llvh::ArrayRef.1", ptr %this1, i32 0, i32 1
  %1 = load i64, ptr %length.addr, align 8
  store i64 %1, ptr %Length, align 8
  ret void
}

; Function Attrs: mustprogress nounwind uwtable
define linkonce_odr hidden noundef ptr @_ZNK4llvh8ArrayRefIhE4dataEv(ptr noundef nonnull align 8 dereferenceable(16) %this) #0 comdat align 2 {
entry:
  %this.addr = alloca ptr, align 8
  store ptr %this, ptr %this.addr, align 8
  %this1 = load ptr, ptr %this.addr, align 8
  %Data = getelementptr inbounds %"class.llvh::ArrayRef.1", ptr %this1, i32 0, i32 0
  %0 = load ptr, ptr %Data, align 8
  ret ptr %0
}

; Function Attrs: mustprogress nounwind uwtable
define linkonce_odr hidden void @_ZN6hermes3hbc27SerializedLiteralParserBaseC2EN4llvh8ArrayRefIhEEj(ptr noundef nonnull align 8 dereferenceable(32) %this, ptr %buff.coerce0, i64 %buff.coerce1, i32 noundef %totalLen) unnamed_addr #0 comdat align 2 {
entry:
  %buff = alloca %"class.llvh::ArrayRef.1", align 8
  %this.addr = alloca ptr, align 8
  %totalLen.addr = alloca i32, align 4
  %0 = getelementptr inbounds { ptr, i64 }, ptr %buff, i32 0, i32 0
  store ptr %buff.coerce0, ptr %0, align 8
  %1 = getelementptr inbounds { ptr, i64 }, ptr %buff, i32 0, i32 1
  store i64 %buff.coerce1, ptr %1, align 8
  store ptr %this, ptr %this.addr, align 8
  store i32 %totalLen, ptr %totalLen.addr, align 4
  %this1 = load ptr, ptr %this.addr, align 8
  %buffer_ = getelementptr inbounds %"class.hermes::hbc::SerializedLiteralParserBase", ptr %this1, i32 0, i32 0
  call void @llvm.memcpy.p0.p0.i64(ptr align 8 %buffer_, ptr align 8 %buff, i64 16, i1 false)
  %elemsLeft_ = getelementptr inbounds %"class.hermes::hbc::SerializedLiteralParserBase", ptr %this1, i32 0, i32 1
  %2 = load i32, ptr %totalLen.addr, align 4
  store i32 %2, ptr %elemsLeft_, align 8
  %leftInSeq_ = getelementptr inbounds %"class.hermes::hbc::SerializedLiteralParserBase", ptr %this1, i32 0, i32 3
  store i32 0, ptr %leftInSeq_, align 8
  %currIdx_ = getelementptr inbounds %"class.hermes::hbc::SerializedLiteralParserBase", ptr %this1, i32 0, i32 4
  store i32 0, ptr %currIdx_, align 4
  ret void
}

; Function Attrs: mustprogress nounwind uwtable
define linkonce_odr hidden { ptr, i64 } @_ZNK4llvh8ArrayRefIhE5sliceEmm(ptr noundef nonnull align 8 dereferenceable(16) %this, i64 noundef %N, i64 noundef %M) #0 comdat align 2 {
entry:
  %retval = alloca %"class.llvh::ArrayRef.1", align 8
  %this.addr = alloca ptr, align 8
  %N.addr = alloca i64, align 8
  %M.addr = alloca i64, align 8
  store ptr %this, ptr %this.addr, align 8
  store i64 %N, ptr %N.addr, align 8
  store i64 %M, ptr %M.addr, align 8
  %this1 = load ptr, ptr %this.addr, align 8
  %call = call noundef ptr @_ZNK4llvh8ArrayRefIhE4dataEv(ptr noundef nonnull align 8 dereferenceable(16) %this1)
  %0 = load i64, ptr %N.addr, align 8
  %add.ptr = getelementptr inbounds i8, ptr %call, i64 %0
  %1 = load i64, ptr %M.addr, align 8
  call void @_ZN4llvh8ArrayRefIhEC2EPKhm(ptr noundef nonnull align 8 dereferenceable(16) %retval, ptr noundef %add.ptr, i64 noundef %1)
  %2 = load { ptr, i64 }, ptr %retval, align 8
  ret { ptr, i64 } %2
}

; Function Attrs: mustprogress nounwind uwtable
define linkonce_odr hidden noundef i64 @_ZNK4llvh8ArrayRefIhE4sizeEv(ptr noundef nonnull align 8 dereferenceable(16) %this) #0 comdat align 2 {
entry:
  %this.addr = alloca ptr, align 8
  store ptr %this, ptr %this.addr, align 8
  %this1 = load ptr, ptr %this.addr, align 8
  %Length = getelementptr inbounds %"class.llvh::ArrayRef.1", ptr %this1, i32 0, i32 1
  %0 = load i64, ptr %Length, align 8
  ret i64 %0
}

; Function Attrs: mustprogress nounwind uwtable
define linkonce_odr hidden noundef ptr @_ZNKSt12__shared_ptrIN6hermes3hbc20BCProviderFromBufferELN9__gnu_cxx12_Lock_policyE2EE3getEv(ptr noundef nonnull align 8 dereferenceable(16) %this) #0 comdat align 2 {
entry:
  %this.addr = alloca ptr, align 8
  store ptr %this, ptr %this.addr, align 8
  %this1 = load ptr, ptr %this.addr, align 8
  %_M_ptr = getelementptr inbounds %"class.std::__shared_ptr", ptr %this1, i32 0, i32 0
  %0 = load ptr, ptr %_M_ptr, align 8
  ret ptr %0
}

; Function Attrs: mustprogress nounwind uwtable
define linkonce_odr hidden void @_ZN6hermes2vm23SerializedLiteralParserC2EN4llvh8ArrayRefIhEEjPNS0_13RuntimeModuleE(ptr noundef nonnull align 8 dereferenceable(40) %this, ptr %buff.coerce0, i64 %buff.coerce1, i32 noundef %totalLen, ptr noundef %runtimeModule) unnamed_addr #0 comdat align 2 {
entry:
  %buff = alloca %"class.llvh::ArrayRef.1", align 8
  %this.addr = alloca ptr, align 8
  %totalLen.addr = alloca i32, align 4
  %runtimeModule.addr = alloca ptr, align 8
  %agg.tmp = alloca %"class.llvh::ArrayRef.1", align 8
  %0 = getelementptr inbounds { ptr, i64 }, ptr %buff, i32 0, i32 0
  store ptr %buff.coerce0, ptr %0, align 8
  %1 = getelementptr inbounds { ptr, i64 }, ptr %buff, i32 0, i32 1
  store i64 %buff.coerce1, ptr %1, align 8
  store ptr %this, ptr %this.addr, align 8
  store i32 %totalLen, ptr %totalLen.addr, align 4
  store ptr %runtimeModule, ptr %runtimeModule.addr, align 8
  %this1 = load ptr, ptr %this.addr, align 8
  call void @llvm.memcpy.p0.p0.i64(ptr align 8 %agg.tmp, ptr align 8 %buff, i64 16, i1 false)
  %2 = load i32, ptr %totalLen.addr, align 4
  %3 = getelementptr inbounds { ptr, i64 }, ptr %agg.tmp, i32 0, i32 0
  %4 = load ptr, ptr %3, align 8
  %5 = getelementptr inbounds { ptr, i64 }, ptr %agg.tmp, i32 0, i32 1
  %6 = load i64, ptr %5, align 8
  call void @_ZN6hermes3hbc27SerializedLiteralParserBaseC2EN4llvh8ArrayRefIhEEj(ptr noundef nonnull align 8 dereferenceable(32) %this1, ptr %4, i64 %6, i32 noundef %2)
  %runtimeModule_ = getelementptr inbounds %"class.hermes::vm::SerializedLiteralParser", ptr %this1, i32 0, i32 1
  %7 = load ptr, ptr %runtimeModule.addr, align 8
  store ptr %7, ptr %runtimeModule_, align 8
  ret void
}

; Function Attrs: mustprogress nounwind uwtable
define linkonce_odr hidden { ptr, i64 } @_ZNK4llvh8ArrayRefIhE5sliceEm(ptr noundef nonnull align 8 dereferenceable(16) %this, i64 noundef %N) #0 comdat align 2 {
entry:
  %retval = alloca %"class.llvh::ArrayRef.1", align 8
  %this.addr = alloca ptr, align 8
  %N.addr = alloca i64, align 8
  store ptr %this, ptr %this.addr, align 8
  store i64 %N, ptr %N.addr, align 8
  %this1 = load ptr, ptr %this.addr, align 8
  %0 = load i64, ptr %N.addr, align 8
  %call = call noundef i64 @_ZNK4llvh8ArrayRefIhE4sizeEv(ptr noundef nonnull align 8 dereferenceable(16) %this1)
  %1 = load i64, ptr %N.addr, align 8
  %sub = sub i64 %call, %1
  %call2 = call { ptr, i64 } @_ZNK4llvh8ArrayRefIhE5sliceEmm(ptr noundef nonnull align 8 dereferenceable(16) %this1, i64 noundef %0, i64 noundef %sub)
  %2 = getelementptr inbounds { ptr, i64 }, ptr %retval, i32 0, i32 0
  %3 = extractvalue { ptr, i64 } %call2, 0
  store ptr %3, ptr %2, align 8
  %4 = getelementptr inbounds { ptr, i64 }, ptr %retval, i32 0, i32 1
  %5 = extractvalue { ptr, i64 } %call2, 1
  store i64 %5, ptr %4, align 8
  %6 = load { ptr, i64 }, ptr %retval, align 8
  ret { ptr, i64 } %6
}

; Function Attrs: mustprogress nounwind uwtable
define linkonce_odr hidden { ptr, i64 } @_ZNK6hermes3hbc14BCProviderBase18getObjectKeyBufferEv(ptr noundef nonnull align 8 dereferenceable(280) %this) #0 comdat align 2 {
entry:
  %retval = alloca %"class.llvh::ArrayRef.1", align 8
  %this.addr = alloca ptr, align 8
  store ptr %this, ptr %this.addr, align 8
  %this1 = load ptr, ptr %this.addr, align 8
  %objKeyBuffer_ = getelementptr inbounds %"class.hermes::hbc::BCProviderBase", ptr %this1, i32 0, i32 9
  call void @llvm.memcpy.p0.p0.i64(ptr align 8 %retval, ptr align 8 %objKeyBuffer_, i64 16, i1 false)
  %0 = load { ptr, i64 }, ptr %retval, align 8
  ret { ptr, i64 } %0
}

; Function Attrs: mustprogress nounwind uwtable
define linkonce_odr hidden noundef ptr @_ZN6hermes2vm13RuntimeModule11getBytecodeEv(ptr noundef nonnull align 8 dereferenceable(192) %this) #0 comdat align 2 {
entry:
  %this.addr = alloca ptr, align 8
  store ptr %this, ptr %this.addr, align 8
  %this1 = load ptr, ptr %this.addr, align 8
  %bcProvider_ = getelementptr inbounds %"class.hermes::vm::RuntimeModule", ptr %this1, i32 0, i32 5
  %call = call noundef ptr @_ZNKSt12__shared_ptrIN6hermes3hbc20BCProviderFromBufferELN9__gnu_cxx12_Lock_policyE2EE3getEv(ptr noundef nonnull align 8 dereferenceable(16) %bcProvider_) #5
  ret ptr %call
}

; Function Attrs: mustprogress nounwind uwtable
define hidden void @_ZNK6hermes2vm9CodeBlock22getObjectBufferKeyIterEjj(ptr noalias sret(%"class.hermes::vm::SerializedLiteralParser") align 8 %agg.result, ptr noundef nonnull align 8 dereferenceable(40) %this, i32 noundef %idx, i32 noundef %numLiterals) #0 align 2 {
entry:
  %this.addr = alloca ptr, align 8
  %idx.addr = alloca i32, align 4
  %numLiterals.addr = alloca i32, align 4
  %agg.tmp = alloca %"class.llvh::ArrayRef.1", align 8
  %ref.tmp = alloca %"class.llvh::ArrayRef.1", align 8
  store ptr %this, ptr %this.addr, align 8
  store i32 %idx, ptr %idx.addr, align 4
  store i32 %numLiterals, ptr %numLiterals.addr, align 4
  %this1 = load ptr, ptr %this.addr, align 8
  %runtimeModule_ = getelementptr inbounds %"class.hermes::vm::CodeBlock", ptr %this1, i32 0, i32 0
  %0 = load ptr, ptr %runtimeModule_, align 8
  %call = call noundef ptr @_ZN6hermes2vm13RuntimeModule11getBytecodeEv(ptr noundef nonnull align 8 dereferenceable(192) %0)
  %call2 = call { ptr, i64 } @_ZNK6hermes3hbc14BCProviderBase18getObjectKeyBufferEv(ptr noundef nonnull align 8 dereferenceable(280) %call)
  %1 = getelementptr inbounds { ptr, i64 }, ptr %ref.tmp, i32 0, i32 0
  %2 = extractvalue { ptr, i64 } %call2, 0
  store ptr %2, ptr %1, align 8
  %3 = getelementptr inbounds { ptr, i64 }, ptr %ref.tmp, i32 0, i32 1
  %4 = extractvalue { ptr, i64 } %call2, 1
  store i64 %4, ptr %3, align 8
  %5 = load i32, ptr %idx.addr, align 4
  %conv = zext i32 %5 to i64
  %call3 = call { ptr, i64 } @_ZNK4llvh8ArrayRefIhE5sliceEm(ptr noundef nonnull align 8 dereferenceable(16) %ref.tmp, i64 noundef %conv)
  %6 = getelementptr inbounds { ptr, i64 }, ptr %agg.tmp, i32 0, i32 0
  %7 = extractvalue { ptr, i64 } %call3, 0
  store ptr %7, ptr %6, align 8
  %8 = getelementptr inbounds { ptr, i64 }, ptr %agg.tmp, i32 0, i32 1
  %9 = extractvalue { ptr, i64 } %call3, 1
  store i64 %9, ptr %8, align 8
  %10 = load i32, ptr %numLiterals.addr, align 4
  %11 = getelementptr inbounds { ptr, i64 }, ptr %agg.tmp, i32 0, i32 0
  %12 = load ptr, ptr %11, align 8
  %13 = getelementptr inbounds { ptr, i64 }, ptr %agg.tmp, i32 0, i32 1
  %14 = load i64, ptr %13, align 8
  call void @_ZN6hermes2vm23SerializedLiteralParserC2EN4llvh8ArrayRefIhEEjPNS0_13RuntimeModuleE(ptr noundef nonnull align 8 dereferenceable(40) %agg.result, ptr %12, i64 %14, i32 noundef %10, ptr noundef null)
  ret void
}